; Function Attrs: mustprogress uwtable
define hidden noundef zeroext i1 @_ZN7datalog14dl_decl_plugin11is_fin_sortEP4sort(ptr noundef nonnull readonly align 8 captures(none) dereferenceable(160) %0, ptr noundef readonly captures(none) %1) local_unnamed_addr #3 align 2 {
  %3 = getelementptr inbounds nuw i8, ptr %1, i64 24
  %4 = load ptr, ptr %3, align 8, !tbaa !30
  %5 = icmp eq ptr %4, null
  br i1 %5, label %_Z10is_sort_ofPK4sortii.exit.thread2, label %_ZNK4decl13get_family_idEv.exit.thread.i.i

_ZNK4decl13get_family_idEv.exit.thread.i.i:       ; preds = %2
  %6 = getelementptr inbounds nuw i8, ptr %0, i64 16
  %7 = load i32, ptr %6, align 8, !tbaa !10
  %8 = load i32, ptr %4, align 8, !tbaa !43
  %9 = icmp eq i32 %8, %7
  br i1 %9, label %_Z10is_sort_ofPK4sortii.exit, label %_Z10is_sort_ofPK4sortii.exit.thread2

_Z10is_sort_ofPK4sortii.exit:                     ; preds = %_ZNK4decl13get_family_idEv.exit.thread.i.i
  %10 = getelementptr inbounds nuw i8, ptr %4, i64 4
  %11 = load i32, ptr %10, align 4, !tbaa !61
  %12 = icmp eq i32 %11, 1
  br i1 %12, label %15, label %_Z10is_sort_ofPK4sortii.exit.thread2

_Z10is_sort_ofPK4sortii.exit.thread2:             ; preds = %2, %_ZNK4decl13get_family_idEv.exit.thread.i.i, %_Z10is_sort_ofPK4sortii.exit
  %13 = getelementptr inbounds nuw i8, ptr %0, i64 8
  %14 = load ptr, ptr %13, align 8, !tbaa !3
  tail call void @_ZN11ast_manager15raise_exceptionEPKc(ptr noundef nonnull align 8 dereferenceable(976) %14, ptr noundef nonnull @.str.30) #23
  unreachable

15:                                               ; preds = %_Z10is_sort_ofPK4sortii.exit
  ret i1 true
}